target datalayout = "e-m:e-p270:32:32-p271:32:32-p272:64:64-i64:64-i128:128-f80:128-n8:16:32:64-S128"
target triple = "x86_64-pc-linux-gnu"

%struct.jpeg_decompress_struct = type { ptr, ptr, ptr, ptr, i32, i32, ptr, i32, i32, i32, i32, i32, i32, i32, double, i32, i32, i32, i32, i32, i32, i32, i32, i32, i32, i32, i32, i32, i32, i32, i32, i32, i32, ptr, i32, i32, i32, i32, i32, ptr, [4 x ptr], [4 x ptr], [4 x ptr], i32, ptr, i32, i32, [16 x i8], [16 x i8], [16 x i8], i32, i32, i8, i8, i8, i16, i16, i32, i8, i32, ptr, i32, i32, i32, i32, ptr, i32, [4 x ptr], i32, i32, i32, [10 x i32], i32, i32, i32, i32, i32, ptr, ptr, ptr, ptr, ptr, ptr, ptr, ptr, ptr, ptr, ptr }
%struct.jpeg_marker_reader = type { ptr, ptr, ptr, i32, i32, i32, i32 }
%struct.jpeg_memory_mgr = type { ptr, ptr, ptr, ptr, ptr, ptr, ptr, ptr, ptr, ptr, ptr, i64, i64 }
%struct.my_marker_reader = type { %struct.jpeg_marker_reader, ptr, [16 x ptr], i32, [16 x i32], ptr, i32 }

; Function Attrs: nounwind uwtable
define internal void @reset_marker_reader(ptr noundef %0) #0 {
  %2 = alloca ptr, align 8
  %3 = alloca ptr, align 8
  store ptr %0, ptr %2, align 8, !tbaa !3
  call void @llvm.lifetime.start.p0(i64 8, ptr %3) #5
  %4 = load ptr, ptr %2, align 8, !tbaa !3
  %5 = getelementptr inbounds nuw %struct.jpeg_decompress_struct, ptr %4, i32 0, i32 82
  %6 = load ptr, ptr %5, align 8, !tbaa !47
  store ptr %6, ptr %3, align 8, !tbaa !56
  %7 = load ptr, ptr %2, align 8, !tbaa !3
  %8 = getelementptr inbounds nuw %struct.jpeg_decompress_struct, ptr %7, i32 0, i32 44
  store ptr null, ptr %8, align 8, !tbaa !64
  %9 = load ptr, ptr %2, align 8, !tbaa !3
  %10 = getelementptr inbounds nuw %struct.jpeg_decompress_struct, ptr %9, i32 0, i32 35
  store i32 0, ptr %10, align 4, !tbaa !65
  %11 = load ptr, ptr %2, align 8, !tbaa !3
  %12 = getelementptr inbounds nuw %struct.jpeg_decompress_struct, ptr %11, i32 0, i32 76
  store i32 0, ptr %12, align 4, !tbaa !10
  %13 = load ptr, ptr %3, align 8, !tbaa !56
  %14 = getelementptr inbounds nuw %struct.my_marker_reader, ptr %13, i32 0, i32 0
  %15 = getelementptr inbounds nuw %struct.jpeg_marker_reader, ptr %14, i32 0, i32 3
  store i32 0, ptr %15, align 8, !tbaa !66
  %16 = load ptr, ptr %3, align 8, !tbaa !56
  %17 = getelementptr inbounds nuw %struct.my_marker_reader, ptr %16, i32 0, i32 0
  %18 = getelementptr inbounds nuw %struct.jpeg_marker_reader, ptr %17, i32 0, i32 4
  store i32 0, ptr %18, align 4, !tbaa !67
  %19 = load ptr, ptr %3, align 8, !tbaa !56
  %20 = getelementptr inbounds nuw %struct.my_marker_reader, ptr %19, i32 0, i32 0
  %21 = getelementptr inbounds nuw %struct.jpeg_marker_reader, ptr %20, i32 0, i32 6
  store i32 0, ptr %21, align 4, !tbaa !68
  %22 = load ptr, ptr %3, align 8, !tbaa !56
  %23 = getelementptr inbounds nuw %struct.my_marker_reader, ptr %22, i32 0, i32 5
  store ptr null, ptr %23, align 8, !tbaa !69
  call void @llvm.lifetime.end.p0(i64 8, ptr %3) #5
  ret void
}

; Function Attrs: nounwind uwtable
define void @jinit_marker_reader(ptr noundef %0) #0 {
  %2 = alloca ptr, align 8
  %3 = alloca ptr, align 8
  %4 = alloca i32, align 4
  store ptr %0, ptr %2, align 8, !tbaa !3
  call void @llvm.lifetime.start.p0(i64 8, ptr %3) #5
  call void @llvm.lifetime.start.p0(i64 4, ptr %4) #5
  %5 = load ptr, ptr %2, align 8, !tbaa !3
  %6 = getelementptr inbounds nuw %struct.jpeg_decompress_struct, ptr %5, i32 0, i32 1
  %7 = load ptr, ptr %6, align 8, !tbaa !53
  %8 = getelementptr inbounds nuw %struct.jpeg_memory_mgr, ptr %7, i32 0, i32 0
  %9 = load ptr, ptr %8, align 8, !tbaa !54
  %10 = load ptr, ptr %2, align 8, !tbaa !3
  %11 = call ptr %9(ptr noundef %10, i32 noundef 0, i64 noundef 264)
  store ptr %11, ptr %3, align 8, !tbaa !56
  %12 = load ptr, ptr %3, align 8, !tbaa !56
  %13 = load ptr, ptr %2, align 8, !tbaa !3
  %14 = getelementptr inbounds nuw %struct.jpeg_decompress_struct, ptr %13, i32 0, i32 82
  store ptr %12, ptr %14, align 8, !tbaa !47
  %15 = load ptr, ptr %3, align 8, !tbaa !56
  %16 = getelementptr inbounds nuw %struct.my_marker_reader, ptr %15, i32 0, i32 0
  %17 = getelementptr inbounds nuw %struct.jpeg_marker_reader, ptr %16, i32 0, i32 0
  store ptr @reset_marker_reader, ptr %17, align 8, !tbaa !57
  %18 = load ptr, ptr %3, align 8, !tbaa !56
  %19 = getelementptr inbounds nuw %struct.my_marker_reader, ptr %18, i32 0, i32 0
  %20 = getelementptr inbounds nuw %struct.jpeg_marker_reader, ptr %19, i32 0, i32 1
  store ptr @read_markers, ptr %20, align 8, !tbaa !59
  %21 = load ptr, ptr %3, align 8, !tbaa !56
  %22 = getelementptr inbounds nuw %struct.my_marker_reader, ptr %21, i32 0, i32 0
  %23 = getelementptr inbounds nuw %struct.jpeg_marker_reader, ptr %22, i32 0, i32 2
  store ptr @read_restart_marker, ptr %23, align 8, !tbaa !60
  %24 = load ptr, ptr %3, align 8, !tbaa !56
  %25 = getelementptr inbounds nuw %struct.my_marker_reader, ptr %24, i32 0, i32 1
  store ptr @skip_variable, ptr %25, align 8, !tbaa !61
  %26 = load ptr, ptr %3, align 8, !tbaa !56
  %27 = getelementptr inbounds nuw %struct.my_marker_reader, ptr %26, i32 0, i32 3
  store i32 0, ptr %27, align 8, !tbaa !62
  store i32 0, ptr %4, align 4, !tbaa !8
  br label %28

28:                                               ; preds = %42, %1
  %29 = load i32, ptr %4, align 4, !tbaa !8
  %30 = icmp slt i32 %29, 16
  br i1 %30, label %31, label %45

31:                                               ; preds = %28
  %32 = load ptr, ptr %3, align 8, !tbaa !56
  %33 = getelementptr inbounds nuw %struct.my_marker_reader, ptr %32, i32 0, i32 2
  %34 = load i32, ptr %4, align 4, !tbaa !8
  %35 = sext i32 %34 to i64
  %36 = getelementptr inbounds [16 x ptr], ptr %33, i64 0, i64 %35
  store ptr @skip_variable, ptr %36, align 8, !tbaa !56
  %37 = load ptr, ptr %3, align 8, !tbaa !56
  %38 = getelementptr inbounds nuw %struct.my_marker_reader, ptr %37, i32 0, i32 4
  %39 = load i32, ptr %4, align 4, !tbaa !8
  %40 = sext i32 %39 to i64
  %41 = getelementptr inbounds [16 x i32], ptr %38, i64 0, i64 %40
  store i32 0, ptr %41, align 4, !tbaa !8
  br label %42

42:                                               ; preds = %31
  %43 = load i32, ptr %4, align 4, !tbaa !8
  %44 = add nsw i32 %43, 1
  store i32 %44, ptr %4, align 4, !tbaa !8
  br label %28, !llvm.loop !63

45:                                               ; preds = %28
  %46 = load ptr, ptr %3, align 8, !tbaa !56
  %47 = getelementptr inbounds nuw %struct.my_marker_reader, ptr %46, i32 0, i32 2
  %48 = getelementptr inbounds [16 x ptr], ptr %47, i64 0, i64 0
  store ptr @get_interesting_appn, ptr %48, align 8, !tbaa !56
  %49 = load ptr, ptr %3, align 8, !tbaa !56
  %50 = getelementptr inbounds nuw %struct.my_marker_reader, ptr %49, i32 0, i32 2
  %51 = getelementptr inbounds [16 x ptr], ptr %50, i64 0, i64 14
  store ptr @get_interesting_appn, ptr %51, align 8, !tbaa !56
  %52 = load ptr, ptr %2, align 8, !tbaa !3
  call void @reset_marker_reader(ptr noundef %52)
  call void @llvm.lifetime.end.p0(i64 4, ptr %4) #5
  call void @llvm.lifetime.end.p0(i64 8, ptr %3) #5
  ret void
}