; Function Attrs: nounwind uwtable
define void @jinit_marker_reader(ptr noundef %0) local_unnamed_addr #0 {
  %2 = getelementptr inbounds nuw i8, ptr %0, i64 8
  %3 = load ptr, ptr %2, align 8, !tbaa !46
  %4 = load ptr, ptr %3, align 8, !tbaa !47
  %5 = tail call ptr %4(ptr noundef %0, i32 noundef 0, i64 noundef 264) #7
  %6 = getelementptr inbounds nuw i8, ptr %0, i64 584
  store ptr %5, ptr %6, align 8, !tbaa !41
  store ptr @reset_marker_reader, ptr %5, align 8, !tbaa !49
  %7 = getelementptr inbounds nuw i8, ptr %5, i64 8
  store ptr @read_markers, ptr %7, align 8, !tbaa !51
  %8 = getelementptr inbounds nuw i8, ptr %5, i64 16
  store ptr @read_restart_marker, ptr %8, align 8, !tbaa !52
  %9 = getelementptr inbounds nuw i8, ptr %5, i64 40
  store ptr @skip_variable, ptr %9, align 8, !tbaa !53
  %10 = getelementptr inbounds nuw i8, ptr %5, i64 176
  store i32 0, ptr %10, align 8, !tbaa !54
  %11 = getelementptr inbounds nuw i8, ptr %5, i64 48
  %12 = getelementptr inbounds nuw i8, ptr %5, i64 180
  br label %13

13:                                               ; preds = %1, %13
  %indvars.iv = phi i64 [ 0, %1 ], [ %indvars.iv.next, %13 ]
  %14 = getelementptr inbounds nuw [16 x ptr], ptr %11, i64 0, i64 %indvars.iv
  store ptr @skip_variable, ptr %14, align 8, !tbaa !55
  %15 = getelementptr inbounds nuw [16 x i32], ptr %12, i64 0, i64 %indvars.iv
  store i32 0, ptr %15, align 4, !tbaa !56
  %indvars.iv.next = add nuw nsw i64 %indvars.iv, 1
  %exitcond.not = icmp eq i64 %indvars.iv.next, 16
  br i1 %exitcond.not, label %16, label %13, !llvm.loop !57

16:                                               ; preds = %13
  store ptr @get_interesting_appn, ptr %11, align 8, !tbaa !55
  %17 = getelementptr inbounds nuw i8, ptr %5, i64 160
  store ptr @get_interesting_appn, ptr %17, align 8, !tbaa !55
  %18 = load ptr, ptr %6, align 8, !tbaa !41
  %19 = getelementptr inbounds nuw i8, ptr %0, i64 304
  store ptr null, ptr %19, align 8, !tbaa !58
  %20 = getelementptr inbounds nuw i8, ptr %0, i64 172
  store i32 0, ptr %20, align 4, !tbaa !59
  %21 = getelementptr inbounds nuw i8, ptr %0, i64 540
  store i32 0, ptr %21, align 4, !tbaa !3
  %22 = getelementptr inbounds nuw i8, ptr %18, i64 24
  store i32 0, ptr %22, align 8, !tbaa !60
  %23 = getelementptr inbounds nuw i8, ptr %18, i64 28
  store i32 0, ptr %23, align 4, !tbaa !61
  %24 = getelementptr inbounds nuw i8, ptr %18, i64 36
  store i32 0, ptr %24, align 4, !tbaa !62
  %25 = getelementptr inbounds nuw i8, ptr %18, i64 248
  store ptr null, ptr %25, align 8, !tbaa !63
  ret void
}